---
triple:          'x86_64-apple-darwin'
binary-path:     main
relocations:
  - { offsetInCU: 0x3F, offset: 0x3F, size: 0x8, addend: 0x0, symName: _k, symObjAddr: 0xEE928, symBinAddr: 0x100010020, symSize: 0x0 }
  - { offsetInCU: 0x6E, offset: 0x6E, size: 0x8, addend: 0x0, symName: _smallDataset, symObjAddr: 0xA7E0, symBinAddr: 0x100010000, symSize: 0x0 }
  - { offsetInCU: 0x88, offset: 0x88, size: 0x8, addend: 0x0, symName: _largeDataset, symObjAddr: 0xA7E8, symBinAddr: 0x100010008, symSize: 0x0 }
  - { offsetInCU: 0x9D, offset: 0x9D, size: 0x8, addend: 0x0, symName: _helpMsg, symObjAddr: 0xA7F0, symBinAddr: 0x100010010, symSize: 0x0 }
  - { offsetInCU: 0xB2, offset: 0xB2, size: 0x8, addend: 0x0, symName: _strNotice, symObjAddr: 0xA7F8, symBinAddr: 0x100010018, symSize: 0x0 }
  - { offsetInCU: 0xD1, offset: 0xD1, size: 0x8, addend: 0x0, symName: __ZN13TestFrameworkL5ParseENS_13StringSegmentERi, symObjAddr: 0x3D90, symBinAddr: 0x100005210, symSize: 0x130 }
  - { offsetInCU: 0xEA2, offset: 0xEA2, size: 0x8, addend: 0x0, symName: __ZN13TestFramework20ExitIfConditionFailsEbPKcS1_, symObjAddr: 0x3C0, symBinAddr: 0x100001880, symSize: 0x90 }
  - { offsetInCU: 0xFDE, offset: 0xFDE, size: 0x8, addend: 0x0, symName: __ZN13TestFramework6EncodeEbRNSt3__112basic_stringIcNS0_11char_traitsIcEENS0_9allocatorIcEEEE, symObjAddr: 0x510, symBinAddr: 0x1000019D0, symSize: 0x30 }
  - { offsetInCU: 0x1019, offset: 0x1019, size: 0x8, addend: 0x0, symName: __ZN13TestFramework5ParseENS_13StringSegmentERb, symObjAddr: 0x540, symBinAddr: 0x100001A00, symSize: 0x80 }
  - { offsetInCU: 0x11DE, offset: 0x11DE, size: 0x8, addend: 0x0, symName: __ZN13TestFramework17StringToLowerCaseERKNSt3__112basic_stringIcNS0_11char_traitsIcEENS0_9allocatorIcEEEERS6_, symObjAddr: 0x1630, symBinAddr: 0x100002AF0, symSize: 0x90 }
  - { offsetInCU: 0x1789, offset: 0x1789, size: 0x8, addend: 0x0, symName: __ZN13TestFramework9AddColumnINS_16ProblemSetHeaderEEEvRNS_13RecordAdapterIT_EEPKcMS3_ii, symObjAddr: 0x3700, symBinAddr: 0x100004B80, symSize: 0x120 }
  - { offsetInCU: 0x1C56, offset: 0x1C56, size: 0x8, addend: 0x0, symName: __ZN13TestFramework9AddColumnI9ProblemN2iEEvRNS_12TableAdapterIT_EEPKcMS3_T0_S8_, symObjAddr: 0x73C0, symBinAddr: 0x100008800, symSize: 0x120 }
  - { offsetInCU: 0x212C, offset: 0x212C, size: 0x8, addend: 0x0, symName: __ZN13TestFramework9AddColumnI9ProblemN2NSt3__112basic_stringIcNS2_11char_traitsIcEENS2_9allocatorIcEEEEEEvRNS_12TableAdapterIT_EEPKcMSA_T0_, symObjAddr: 0x74E0, symBinAddr: 0x100008920, symSize: 0x130 }
  - { offsetInCU: 0x2632, offset: 0x2632, size: 0x8, addend: 0x0, symName: __ZN13TestFramework9AddColumnI9ProblemN2NSt3__16vectorIiNS2_9allocatorIiEEEEEEvRNS_12TableAdapterIT_EEPKcMS8_T0_, symObjAddr: 0x2CF0, symBinAddr: 0x1000041B0, symSize: 0x130 }
  - { offsetInCU: 0x2B19, offset: 0x2B19, size: 0x8, addend: 0x0, symName: __ZN13TestFramework9AddColumnI9ProblemN2EEvRNS_12TableAdapterIT_EEPKcMS3_ii, symObjAddr: 0x2E20, symBinAddr: 0x1000042E0, symSize: 0x120 }
  - { offsetInCU: 0x2FE6, offset: 0x2FE6, size: 0x8, addend: 0x0, symName: __ZN13TestFramework20PreprocessProblemSetI9ProblemN2EEviRNSt3__16vectorIT_NS2_9allocatorIS4_EEEERNS_16ProblemSetHeaderE, symObjAddr: 0x2F40, symBinAddr: 0x100004400, symSize: 0xE0 }
  - { offsetInCU: 0x315E, offset: 0x315E, size: 0x8, addend: 0x0, symName: __ZN13TestFramework14ProcessResultsI9ProblemN2EEvRNSt3__16vectorIT_NS2_9allocatorIS4_EEEERNS_16ProblemSetHeaderE, symObjAddr: 0x3020, symBinAddr: 0x1000044E0, symSize: 0x480 }
  - { offsetInCU: 0x3A78, offset: 0x3A78, size: 0x8, addend: 0x0, symName: __ZN13TestFrameworkL19WriteRecordToStreamERNSt3__113basic_ostreamIcNS0_11char_traitsIcEEEEPNS_6ITableEmbb, symObjAddr: 0x47C0, symBinAddr: 0x100005C40, symSize: 0x220 }
  - { offsetInCU: 0x4825, offset: 0x4825, size: 0x8, addend: 0x0, symName: __ZNSt3__1L19piecewise_constructE, symObjAddr: 0xA9FA, symBinAddr: 0x10000B2DA, symSize: 0x0 }
  - { offsetInCU: 0x1822D, offset: 0x1822D, size: 0x8, addend: 0x0, symName: '__ZNSt3__111__introsortINS_17_ClassicAlgPolicyERZ7MinCostRNS_6vectorI5PriceNS_9allocatorIS3_EEEEiiE3$_0PS3_EEvT1_SB_T0_NS_15iterator_traitsISB_E15difference_typeE', symObjAddr: 0x55A0, symBinAddr: 0x1000069E0, symSize: 0xCC0 }
  - { offsetInCU: 0x1968E, offset: 0x1968E, size: 0x8, addend: 0x0, symName: '__ZNSt3__127__insertion_sort_incompleteIRZ7MinCostRNS_6vectorI5PriceNS_9allocatorIS2_EEEEiiE3$_0PS2_EEbT0_SA_T_', symObjAddr: 0x6260, symBinAddr: 0x1000076A0, symSize: 0x4C0 }
  - { offsetInCU: 0x1A05E, offset: 0x1A05E, size: 0x8, addend: 0x0, symName: __ZNSt3__124__put_character_sequenceB7v160006IcNS_11char_traitsIcEEEERNS_13basic_ostreamIT_T0_EES7_PKS4_m, symObjAddr: 0x68E0, symBinAddr: 0x100007D20, symSize: 0x150 }
  - { offsetInCU: 0x1E790, offset: 0x1E790, size: 0x8, addend: 0x0, symName: __ZNSt3__14endlB7v160006IcNS_11char_traitsIcEEEERNS_13basic_ostreamIT_T0_EES7_, symObjAddr: 0x480, symBinAddr: 0x100001940, symSize: 0x90 }
  - { offsetInCU: 0x1E815, offset: 0x1E815, size: 0x8, addend: 0x0, symName: __ZNSt3__1lsB7v160006INS_11char_traitsIcEEEERNS_13basic_ostreamIcT_EES6_PKc, symObjAddr: 0x450, symBinAddr: 0x100001910, symSize: 0x30 }
  - { offsetInCU: 0x1FE4B, offset: 0x1FE4B, size: 0x8, addend: 0x0, symName: __ZNSt3__17getlineB7v160006IcNS_11char_traitsIcEENS_9allocatorIcEEEERNS_13basic_istreamIT_T0_EES9_RNS_12basic_stringIS6_S7_T1_EES6_, symObjAddr: 0x6B80, symBinAddr: 0x100007FC0, symSize: 0x150 }
  - { offsetInCU: 0x21E4F, offset: 0x21E4F, size: 0x8, addend: 0x0, symName: __ZNSt3__120__throw_length_errorB7v160006EPKc, symObjAddr: 0x4360, symBinAddr: 0x1000057E0, symSize: 0x50 }
  - { offsetInCU: 0x21E98, offset: 0x21E98, size: 0x8, addend: 0x0, symName: __ZNSt3__127__tree_balance_after_insertB7v160006IPNS_16__tree_node_baseIPvEEEEvT_S5_, symObjAddr: 0x4610, symBinAddr: 0x100005A90, symSize: 0x160 }
  - { offsetInCU: 0x22B1E, offset: 0x22B1E, size: 0x8, addend: 0x0, symName: '__ZNSt3__17__sort4B7v160006INS_17_ClassicAlgPolicyERZ7MinCostRNS_6vectorI5PriceNS_9allocatorIS3_EEEEiiE3$_0PS3_EEjT1_SB_SB_SB_T0_', symObjAddr: 0x6720, symBinAddr: 0x100007B60, symSize: 0x1C0 }
  - { offsetInCU: 0x22F6E, offset: 0x22F6E, size: 0x8, addend: 0x0, symName: __ZNSt3__116__pad_and_outputB7v160006IcNS_11char_traitsIcEEEENS_19ostreambuf_iteratorIT_T0_EES6_PKS4_S8_S8_RNS_8ios_baseES4_, symObjAddr: 0x6A30, symBinAddr: 0x100007E70, symSize: 0x150 }
  - { offsetInCU: 0x24C80, offset: 0x24C80, size: 0x8, addend: 0x0, symName: __ZSt28__throw_bad_array_new_lengthB7v160006v, symObjAddr: 0x43E0, symBinAddr: 0x100005860, symSize: 0x40 }
  - { offsetInCU: 0x2879E, offset: 0x2879E, size: 0x8, addend: 0x0, symName: __Z4swapPiS_, symObjAddr: 0x0, symBinAddr: 0x1000014C0, symSize: 0x10 }
  - { offsetInCU: 0x287FA, offset: 0x287FA, size: 0x8, addend: 0x0, symName: __Z9partitionPiii, symObjAddr: 0x10, symBinAddr: 0x1000014D0, symSize: 0xE0 }
  - { offsetInCU: 0x288D6, offset: 0x288D6, size: 0x8, addend: 0x0, symName: __Z11quickSelectPiiii, symObjAddr: 0xF0, symBinAddr: 0x1000015B0, symSize: 0x170 }
  - { offsetInCU: 0x289D4, offset: 0x289D4, size: 0x8, addend: 0x0, symName: __Z10printArrayPii, symObjAddr: 0x260, symBinAddr: 0x100001720, symSize: 0x60 }
  - { offsetInCU: 0x28BAE, offset: 0x28BAE, size: 0x8, addend: 0x0, symName: __Z17DefaultProblemSetv, symObjAddr: 0x2C0, symBinAddr: 0x100001780, symSize: 0x20 }
  - { offsetInCU: 0x28E17, offset: 0x28E17, size: 0x8, addend: 0x0, symName: __Z7MinCostRNSt3__16vectorI5PriceNS_9allocatorIS1_EEEEii, symObjAddr: 0x2E0, symBinAddr: 0x1000017A0, symSize: 0xE0 }
  - { offsetInCU: 0x2917B, offset: 0x2917B, size: 0x8, addend: 0x0, symName: __ZN13TestFramework13StringSegment4TrimEv, symObjAddr: 0x5C0, symBinAddr: 0x100001A80, symSize: 0x160 }
  - { offsetInCU: 0x294D9, offset: 0x294D9, size: 0x8, addend: 0x0, symName: __ZN13TestFramework13StringSegment5MatchEPKcb, symObjAddr: 0x720, symBinAddr: 0x100001BE0, symSize: 0x130 }
  - { offsetInCU: 0x29820, offset: 0x29820, size: 0x8, addend: 0x0, symName: __ZN13TestFramework13StringSegment5MatchEPKcb.cold.1, symObjAddr: 0x8E20, symBinAddr: 0x10000A2E0, symSize: 0x30 }
  - { offsetInCU: 0x29864, offset: 0x29864, size: 0x8, addend: 0x0, symName: __ZN13TestFramework13StringSegmentC2ERKNSt3__112basic_stringIcNS1_11char_traitsIcEENS1_9allocatorIcEEEE, symObjAddr: 0x850, symBinAddr: 0x100001D10, symSize: 0x30 }
  - { offsetInCU: 0x2990A, offset: 0x2990A, size: 0x8, addend: 0x0, symName: __ZN13TestFramework13StringSegmentC1ERKNSt3__112basic_stringIcNS1_11char_traitsIcEENS1_9allocatorIcEEEE, symObjAddr: 0x880, symBinAddr: 0x100001D40, symSize: 0x30 }
  - { offsetInCU: 0x299A4, offset: 0x299A4, size: 0x8, addend: 0x0, symName: __ZN13TestFramework13StringSegmentC2ERKNSt3__112basic_stringIcNS1_11char_traitsIcEENS1_9allocatorIcEEEEmm, symObjAddr: 0x8B0, symBinAddr: 0x100001D70, symSize: 0x20 }
  - { offsetInCU: 0x29A19, offset: 0x29A19, size: 0x8, addend: 0x0, symName: __ZN13TestFramework13StringSegmentC1ERKNSt3__112basic_stringIcNS1_11char_traitsIcEENS1_9allocatorIcEEEEmm, symObjAddr: 0x8D0, symBinAddr: 0x100001D90, symSize: 0x20 }
  - { offsetInCU: 0x29B9A, offset: 0x29B9A, size: 0x8, addend: 0x0, symName: __ZNK13TestFramework13StringSegment8ToStringEv, symObjAddr: 0x8F0, symBinAddr: 0x100001DB0, symSize: 0x50 }
  - { offsetInCU: 0x29D42, offset: 0x29D42, size: 0x8, addend: 0x0, symName: __ZNK13TestFramework13StringSegment6CopyToERNSt3__112basic_stringIcNS1_11char_traitsIcEENS1_9allocatorIcEEEE, symObjAddr: 0x940, symBinAddr: 0x100001E00, symSize: 0x20 }
  - { offsetInCU: 0x29D6D, offset: 0x29D6D, size: 0x8, addend: 0x0, symName: __ZNK13TestFramework13StringSegment6CopyToEPcm, symObjAddr: 0x960, symBinAddr: 0x100001E20, symSize: 0x80 }
  - { offsetInCU: 0x29E95, offset: 0x29E95, size: 0x8, addend: 0x0, symName: __ZNK13TestFramework13StringSegment6CopyToEPcm.cold.1, symObjAddr: 0x8E50, symBinAddr: 0x10000A310, symSize: 0x30 }
  - { offsetInCU: 0x29EE4, offset: 0x29EE4, size: 0x8, addend: 0x0, symName: __ZNK13TestFramework13StringSegment10CountCharsEc, symObjAddr: 0x9E0, symBinAddr: 0x100001EA0, symSize: 0x190 }
  - { offsetInCU: 0x2A002, offset: 0x2A002, size: 0x8, addend: 0x0, symName: __ZNK13TestFramework13StringSegment7IsEmptyEv, symObjAddr: 0xB70, symBinAddr: 0x100002030, symSize: 0x10 }
  - { offsetInCU: 0x2A022, offset: 0x2A022, size: 0x8, addend: 0x0, symName: __ZNK13TestFramework13StringSegment6LengthEv, symObjAddr: 0xB80, symBinAddr: 0x100002040, symSize: 0x20 }
  - { offsetInCU: 0x2A051, offset: 0x2A051, size: 0x8, addend: 0x0, symName: __ZNK13TestFramework13StringSegment6LengthEv.cold.1, symObjAddr: 0x8E80, symBinAddr: 0x10000A340, symSize: 0x30 }
  - { offsetInCU: 0x2A069, offset: 0x2A069, size: 0x8, addend: 0x0, symName: __ZN13TestFramework13StringSegment8ReadLeftEv, symObjAddr: 0xBA0, symBinAddr: 0x100002060, symSize: 0x40 }
  - { offsetInCU: 0x2A139, offset: 0x2A139, size: 0x8, addend: 0x0, symName: __ZN13TestFramework13StringSegment9ReadRightEv, symObjAddr: 0xBE0, symBinAddr: 0x1000020A0, symSize: 0x40 }
  - { offsetInCU: 0x2A200, offset: 0x2A200, size: 0x8, addend: 0x0, symName: __ZNK13TestFramework13StringSegment9FirstCharEv, symObjAddr: 0xC20, symBinAddr: 0x1000020E0, symSize: 0x40 }
  - { offsetInCU: 0x2A2D4, offset: 0x2A2D4, size: 0x8, addend: 0x0, symName: __ZNK13TestFramework13StringSegment9FirstCharEv.cold.1, symObjAddr: 0x8EB0, symBinAddr: 0x10000A370, symSize: 0x30 }
  - { offsetInCU: 0x2A2EC, offset: 0x2A2EC, size: 0x8, addend: 0x0, symName: __ZNK13TestFramework13StringSegment8LastCharEv, symObjAddr: 0xC60, symBinAddr: 0x100002120, symSize: 0x40 }
  - { offsetInCU: 0x2A3C7, offset: 0x2A3C7, size: 0x8, addend: 0x0, symName: __ZNK13TestFramework13StringSegment8LastCharEv.cold.1, symObjAddr: 0x8EE0, symBinAddr: 0x10000A3A0, symSize: 0x30 }
  - { offsetInCU: 0x2A41A, offset: 0x2A41A, size: 0x8, addend: 0x0, symName: __ZN13TestFramework13StringSegment12RemovePrefixEm, symObjAddr: 0xCA0, symBinAddr: 0x100002160, symSize: 0x20 }
  - { offsetInCU: 0x2A49E, offset: 0x2A49E, size: 0x8, addend: 0x0, symName: __ZN13TestFramework13StringSegment12RemoveSuffixEm, symObjAddr: 0xCC0, symBinAddr: 0x100002180, symSize: 0x20 }
  - { offsetInCU: 0x2A52E, offset: 0x2A52E, size: 0x8, addend: 0x0, symName: __ZN13TestFramework13StringSegment8TrimLeftEv, symObjAddr: 0xCE0, symBinAddr: 0x1000021A0, symSize: 0xC0 }
  - { offsetInCU: 0x2A6C8, offset: 0x2A6C8, size: 0x8, addend: 0x0, symName: __ZN13TestFramework13StringSegment9TrimRightEv, symObjAddr: 0xDA0, symBinAddr: 0x100002260, symSize: 0xC0 }
  - { offsetInCU: 0x2A8AA, offset: 0x2A8AA, size: 0x8, addend: 0x0, symName: __ZN13TestFramework13StringSegment5MatchES0_b, symObjAddr: 0xE60, symBinAddr: 0x100002320, symSize: 0x1F0 }
  - { offsetInCU: 0x2AC2A, offset: 0x2AC2A, size: 0x8, addend: 0x0, symName: __ZN13TestFramework13StringSegment5MatchES0_b.cold.3, symObjAddr: 0x8F70, symBinAddr: 0x10000A430, symSize: 0x30 }
  - { offsetInCU: 0x2AC58, offset: 0x2AC58, size: 0x8, addend: 0x0, symName: __ZN13TestFramework13StringSegment5MatchES0_b.cold.1, symObjAddr: 0x8F10, symBinAddr: 0x10000A3D0, symSize: 0x30 }
  - { offsetInCU: 0x2AC86, offset: 0x2AC86, size: 0x8, addend: 0x0, symName: __ZN13TestFramework13StringSegment5MatchES0_b.cold.2, symObjAddr: 0x8F40, symBinAddr: 0x10000A400, symSize: 0x30 }
  - { offsetInCU: 0x2ACB4, offset: 0x2ACB4, size: 0x8, addend: 0x0, symName: __ZNK13TestFramework13StringSegmentixEm, symObjAddr: 0x1050, symBinAddr: 0x100002510, symSize: 0x40 }
  - { offsetInCU: 0x2AD8F, offset: 0x2AD8F, size: 0x8, addend: 0x0, symName: __ZNK13TestFramework13StringSegmentixEm.cold.1, symObjAddr: 0x8FA0, symBinAddr: 0x10000A460, symSize: 0x30 }
  - { offsetInCU: 0x2ADBF, offset: 0x2ADBF, size: 0x8, addend: 0x0, symName: __ZN13TestFramework13StringSegment5SplitEcRS0_, symObjAddr: 0x1090, symBinAddr: 0x100002550, symSize: 0xA0 }
  - { offsetInCU: 0x2AEAE, offset: 0x2AEAE, size: 0x8, addend: 0x0, symName: __ZN13TestFramework13StringSegment5SplitEcRS0_.cold.1, symObjAddr: 0x8FD0, symBinAddr: 0x10000A490, symSize: 0x30 }
  - { offsetInCU: 0x2AED5, offset: 0x2AED5, size: 0x8, addend: 0x0, symName: __ZN13TestFramework18AbstractLineParserC2Ev, symObjAddr: 0x1130, symBinAddr: 0x1000025F0, symSize: 0x30 }
  - { offsetInCU: 0x2AEF5, offset: 0x2AEF5, size: 0x8, addend: 0x0, symName: __ZNK13TestFramework18AbstractLineParser4IsOKEv, symObjAddr: 0x1160, symBinAddr: 0x100002620, symSize: 0x10 }
  - { offsetInCU: 0x2AF15, offset: 0x2AF15, size: 0x8, addend: 0x0, symName: __ZN13TestFramework18AbstractLineParser11ClearErrorsEv, symObjAddr: 0x1170, symBinAddr: 0x100002630, symSize: 0x10 }
  - { offsetInCU: 0x2B1E7, offset: 0x2B1E7, size: 0x8, addend: 0x0, symName: __ZN13TestFramework18AbstractLineParser9ParseFileEPKcb, symObjAddr: 0x1180, symBinAddr: 0x100002640, symSize: 0x390 }
  - { offsetInCU: 0x2B966, offset: 0x2B966, size: 0x8, addend: 0x0, symName: __ZN13TestFramework18AbstractLineParser14CheckConditionEbPKc, symObjAddr: 0x1510, symBinAddr: 0x1000029D0, symSize: 0xD0 }
  - { offsetInCU: 0x2BB7B, offset: 0x2BB7B, size: 0x8, addend: 0x0, symName: __ZNSt3__114basic_ifstreamIcNS_11char_traitsIcEEED1Ev, symObjAddr: 0x15E0, symBinAddr: 0x100002AA0, symSize: 0x50 }
  - { offsetInCU: 0x2BC2A, offset: 0x2BC2A, size: 0x8, addend: 0x0, symName: __ZNK13TestFramework6ITable8GetValueEmNS_13StringSegmentERNSt3__112basic_stringIcNS2_11char_traitsIcEENS2_9allocatorIcEEEE, symObjAddr: 0x16C0, symBinAddr: 0x100002B80, symSize: 0x60 }
  - { offsetInCU: 0x2BCD9, offset: 0x2BCD9, size: 0x8, addend: 0x0, symName: __ZN13TestFramework6ITable8SetValueEmNS_13StringSegmentES1_, symObjAddr: 0x1720, symBinAddr: 0x100002BE0, symSize: 0x70 }
  - { offsetInCU: 0x2BDA2, offset: 0x2BDA2, size: 0x8, addend: 0x0, symName: __ZN13TestFramework15BasicYamlParserC2EPNS_6ITableES2_, symObjAddr: 0x1790, symBinAddr: 0x100002C50, symSize: 0x90 }
  - { offsetInCU: 0x2BE45, offset: 0x2BE45, size: 0x8, addend: 0x0, symName: __ZN13TestFramework15BasicYamlParserC2EPNS_6ITableES2_.cold.1, symObjAddr: 0x9000, symBinAddr: 0x10000A4C0, symSize: 0x30 }
  - { offsetInCU: 0x2BE5D, offset: 0x2BE5D, size: 0x8, addend: 0x0, symName: __ZN13TestFramework15BasicYamlParserC2EPNS_6ITableES2_.cold.2, symObjAddr: 0x9030, symBinAddr: 0x10000A4F0, symSize: 0x30 }
  - { offsetInCU: 0x2BE75, offset: 0x2BE75, size: 0x8, addend: 0x0, symName: __ZN13TestFramework15BasicYamlParserC2EPNS_6ITableES2_.cold.3, symObjAddr: 0x9060, symBinAddr: 0x10000A520, symSize: 0x30 }
  - { offsetInCU: 0x2BE8D, offset: 0x2BE8D, size: 0x8, addend: 0x0, symName: __ZN13TestFramework15BasicYamlParserC2EPNS_6ITableES2_.cold.4, symObjAddr: 0x9090, symBinAddr: 0x10000A550, symSize: 0x30 }
  - { offsetInCU: 0x2BEA5, offset: 0x2BEA5, size: 0x8, addend: 0x0, symName: __ZN13TestFramework15BasicYamlParserC1EPNS_6ITableES2_, symObjAddr: 0x1820, symBinAddr: 0x100002CE0, symSize: 0x10 }
  - { offsetInCU: 0x2BEF7, offset: 0x2BEF7, size: 0x8, addend: 0x0, symName: __ZN13TestFramework15BasicYamlParser16SetHeaderAdapterEPNS_6ITableE, symObjAddr: 0x1830, symBinAddr: 0x100002CF0, symSize: 0x40 }
  - { offsetInCU: 0x2BF56, offset: 0x2BF56, size: 0x8, addend: 0x0, symName: __ZN13TestFramework15BasicYamlParser16SetHeaderAdapterEPNS_6ITableE.cold.1, symObjAddr: 0x90C0, symBinAddr: 0x10000A580, symSize: 0x30 }
  - { offsetInCU: 0x2BF6E, offset: 0x2BF6E, size: 0x8, addend: 0x0, symName: __ZN13TestFramework15BasicYamlParser16SetHeaderAdapterEPNS_6ITableE.cold.2, symObjAddr: 0x90F0, symBinAddr: 0x10000A5B0, symSize: 0x30 }
  - { offsetInCU: 0x2BF86, offset: 0x2BF86, size: 0x8, addend: 0x0, symName: __ZN13TestFramework15BasicYamlParser15SetTableAdapterEPNS_6ITableE, symObjAddr: 0x1870, symBinAddr: 0x100002D30, symSize: 0x40 }
  - { offsetInCU: 0x2BFE5, offset: 0x2BFE5, size: 0x8, addend: 0x0, symName: __ZN13TestFramework15BasicYamlParser15SetTableAdapterEPNS_6ITableE.cold.1, symObjAddr: 0x9120, symBinAddr: 0x10000A5E0, symSize: 0x30 }
  - { offsetInCU: 0x2BFFD, offset: 0x2BFFD, size: 0x8, addend: 0x0, symName: __ZN13TestFramework15BasicYamlParser15SetTableAdapterEPNS_6ITableE.cold.2, symObjAddr: 0x9150, symBinAddr: 0x10000A610, symSize: 0x30 }
  - { offsetInCU: 0x2C015, offset: 0x2C015, size: 0x8, addend: 0x0, symName: __ZN13TestFramework15BasicYamlParser8PreParseEv, symObjAddr: 0x18B0, symBinAddr: 0x100002D70, symSize: 0x10 }
  - { offsetInCU: 0x2C0B6, offset: 0x2C0B6, size: 0x8, addend: 0x0, symName: __ZN13TestFramework15BasicYamlParser9ParseLineENS_13StringSegmentE, symObjAddr: 0x18C0, symBinAddr: 0x100002D80, symSize: 0x250 }
  - { offsetInCU: 0x2C47B, offset: 0x2C47B, size: 0x8, addend: 0x0, symName: __ZN13TestFramework15BasicYamlParser9ParseLineENS_13StringSegmentE.cold.1, symObjAddr: 0x9180, symBinAddr: 0x10000A640, symSize: 0x30 }
  - { offsetInCU: 0x2C493, offset: 0x2C493, size: 0x8, addend: 0x0, symName: __ZN13TestFramework15BasicYamlParser9ParseLineENS_13StringSegmentE.cold.2, symObjAddr: 0x91B0, symBinAddr: 0x10000A670, symSize: 0x30 }
  - { offsetInCU: 0x2C904, offset: 0x2C904, size: 0x8, addend: 0x0, symName: __Z13MinCostHelperRKNSt3__16vectorIiNS_9allocatorIiEEEES5_S5_ii, symObjAddr: 0x1B10, symBinAddr: 0x100002FD0, symSize: 0x2B0 }
  - { offsetInCU: 0x2D1F6, offset: 0x2D1F6, size: 0x8, addend: 0x0, symName: __ZNKSt3__16vectorI5PriceNS_9allocatorIS1_EEE20__throw_length_errorB7v160006Ev, symObjAddr: 0x6CD0, symBinAddr: 0x100008110, symSize: 0x10 }
  - { offsetInCU: 0x2D21F, offset: 0x2D21F, size: 0x8, addend: 0x0, symName: __ZN13TestFramework13RecordAdapterINS_16ProblemSetHeaderEE6NewRowERm, symObjAddr: 0x6CE0, symBinAddr: 0x100008120, symSize: 0x10 }
  - { offsetInCU: 0x2DDAA, offset: 0x2DDAA, size: 0x8, addend: 0x0, symName: _main, symObjAddr: 0x1DC0, symBinAddr: 0x100003280, symSize: 0xF30 }
  - { offsetInCU: 0x30975, offset: 0x30975, size: 0x8, addend: 0x0, symName: __ZNSt3__16__treeINS_12__value_typeINS_12basic_stringIcNS_11char_traitsIcEENS_9allocatorIcEEEEmEENS_19__map_value_compareIS7_S8_NS_4lessIS7_EELb1EEENS5_IS8_EEE7destroyEPNS_11__tree_nodeIS8_PvEE, symObjAddr: 0x4F40, symBinAddr: 0x1000063A0, symSize: 0x50 }
  - { offsetInCU: 0x30C37, offset: 0x30C37, size: 0x8, addend: 0x0, symName: __ZNSt3__16vectorI9ProblemN2NS_9allocatorIS1_EEE16__destroy_vectorclB7v160006Ev, symObjAddr: 0x6E20, symBinAddr: 0x100008260, symSize: 0xC0 }
  - { offsetInCU: 0x31322, offset: 0x31322, size: 0x8, addend: 0x0, symName: __ZNSt3__114basic_ofstreamIcNS_11char_traitsIcEEED1Ev, symObjAddr: 0x4770, symBinAddr: 0x100005BF0, symSize: 0x50 }
  - { offsetInCU: 0x3136C, offset: 0x3136C, size: 0x8, addend: 0x0, symName: __ZN13TestFramework12TableAdapterI9ProblemN2ED1Ev, symObjAddr: 0x34A0, symBinAddr: 0x100004960, symSize: 0xD0 }
  - { offsetInCU: 0x31774, offset: 0x31774, size: 0x8, addend: 0x0, symName: __ZNSt3__16vectorI9ProblemN2NS_9allocatorIS1_EEED1B7v160006Ev, symObjAddr: 0x3580, symBinAddr: 0x100004A40, symSize: 0x30 }
  - { offsetInCU: 0x3180D, offset: 0x3180D, size: 0x8, addend: 0x0, symName: __ZN13TestFramework13RecordAdapterINS_16ProblemSetHeaderEED1Ev, symObjAddr: 0x35B0, symBinAddr: 0x100004A70, symSize: 0xD0 }
  - { offsetInCU: 0x320E6, offset: 0x320E6, size: 0x8, addend: 0x0, symName: __ZN13TestFramework20AbstractTableAdapterI9ProblemN2E14AddNamedColumnEPKcNSt3__110shared_ptrINS_16BaseFieldAdapterIS1_EEEE, symObjAddr: 0x7610, symBinAddr: 0x100008A50, symSize: 0x2D0 }
  - { offsetInCU: 0x33068, offset: 0x33068, size: 0x8, addend: 0x0, symName: __ZNSt3__110shared_ptrIN13TestFramework16BaseFieldAdapterI9ProblemN2EEED1B7v160006Ev, symObjAddr: 0x4F00, symBinAddr: 0x100006360, symSize: 0x40 }
  - { offsetInCU: 0x330FE, offset: 0x330FE, size: 0x8, addend: 0x0, symName: __ZN13TestFramework12FieldAdapterI9ProblemN2NSt3__16vectorIiNS2_9allocatorIiEEEEED0Ev, symObjAddr: 0x8B70, symBinAddr: 0x100009FB0, symSize: 0x40 }
  - { offsetInCU: 0x333CA, offset: 0x333CA, size: 0x8, addend: 0x0, symName: __ZN13TestFramework15BasicYamlParserD1Ev, symObjAddr: 0x3570, symBinAddr: 0x100004A30, symSize: 0x10 }
  - { offsetInCU: 0x333F6, offset: 0x333F6, size: 0x8, addend: 0x0, symName: __ZN13TestFramework6ITableD1Ev, symObjAddr: 0x3680, symBinAddr: 0x10000A260, symSize: 0x10 }
  - { offsetInCU: 0x3341F, offset: 0x3341F, size: 0x8, addend: 0x0, symName: __ZN13TestFramework6ITableD0Ev, symObjAddr: 0x3690, symBinAddr: 0x10000A270, symSize: 0x10 }
  - { offsetInCU: 0x33448, offset: 0x33448, size: 0x8, addend: 0x0, symName: __ZN13TestFramework15BasicYamlParserD0Ev, symObjAddr: 0x36A0, symBinAddr: 0x100004B40, symSize: 0x10 }
  - { offsetInCU: 0x33474, offset: 0x33474, size: 0x8, addend: 0x0, symName: __ZN13TestFramework18AbstractLineParser9PostParseEv, symObjAddr: 0x36B0, symBinAddr: 0x100004B50, symSize: 0x10 }
  - { offsetInCU: 0x33499, offset: 0x33499, size: 0x8, addend: 0x0, symName: __ZN13TestFramework18AbstractLineParserD1Ev, symObjAddr: 0x36C0, symBinAddr: 0x10000A280, symSize: 0x10 }
  - { offsetInCU: 0x334C2, offset: 0x334C2, size: 0x8, addend: 0x0, symName: __ZN13TestFramework18AbstractLineParserD0Ev, symObjAddr: 0x36D0, symBinAddr: 0x10000A290, symSize: 0x10 }
  - { offsetInCU: 0x334EB, offset: 0x334EB, size: 0x8, addend: 0x0, symName: __ZN13TestFramework18AbstractLineParser8PreParseEv, symObjAddr: 0x36E0, symBinAddr: 0x100004B60, symSize: 0x10 }
  - { offsetInCU: 0x33989, offset: 0x33989, size: 0x8, addend: 0x0, symName: __ZN13TestFramework20AbstractTableAdapterINS_16ProblemSetHeaderEE14AddNamedColumnEPKcNSt3__110shared_ptrINS_16BaseFieldAdapterIS1_EEEE, symObjAddr: 0x3820, symBinAddr: 0x100004CA0, symSize: 0x2D0 }
  - { offsetInCU: 0x3490B, offset: 0x3490B, size: 0x8, addend: 0x0, symName: __ZNSt3__110shared_ptrIN13TestFramework16BaseFieldAdapterINS1_16ProblemSetHeaderEEEED1B7v160006Ev, symObjAddr: 0x3AF0, symBinAddr: 0x100004F70, symSize: 0x40 }
  - { offsetInCU: 0x34D7C, offset: 0x34D7C, size: 0x8, addend: 0x0, symName: __ZNSt3__16__treeINS_12__value_typeINS_12basic_stringIcNS_11char_traitsIcEENS_9allocatorIcEEEEmEENS_19__map_value_compareIS7_S8_NS_4lessIS7_EELb1EEENS5_IS8_EEE4findIS7_EENS_15__tree_iteratorIS8_PNS_11__tree_nodeIS8_PvEElEERKT_, symObjAddr: 0x3F20, symBinAddr: 0x1000053A0, symSize: 0x140 }
  - { offsetInCU: 0x35084, offset: 0x35084, size: 0x8, addend: 0x0, symName: __ZNSt3__16vectorIN13TestFramework20AbstractTableAdapterINS1_16ProblemSetHeaderEE10ColumnSpecENS_9allocatorIS5_EEE21__push_back_slow_pathIRKS5_EEvOT_, symObjAddr: 0x4060, symBinAddr: 0x1000054E0, symSize: 0x240 }
  - { offsetInCU: 0x359F1, offset: 0x359F1, size: 0x8, addend: 0x0, symName: __ZNSt3__16__treeINS_12__value_typeINS_12basic_stringIcNS_11char_traitsIcEENS_9allocatorIcEEEEmEENS_19__map_value_compareIS7_S8_NS_4lessIS7_EELb1EEENS5_IS8_EEE25__emplace_unique_key_argsIS7_JRKNS_21piecewise_construct_tENS_5tupleIJRKS7_EEENSJ_IJEEEEEENS_4pairINS_15__tree_iteratorIS8_PNS_11__tree_nodeIS8_PvEElEEbEERKT_DpOT0_, symObjAddr: 0x4420, symBinAddr: 0x1000058A0, symSize: 0xB0 }
  - { offsetInCU: 0x35DC7, offset: 0x35DC7, size: 0x8, addend: 0x0, symName: __ZNKSt3__112basic_stringIcNS_11char_traitsIcEENS_9allocatorIcEEE20__throw_length_errorB7v160006Ev, symObjAddr: 0x5590, symBinAddr: 0x1000069D0, symSize: 0x10 }
  - { offsetInCU: 0x35DF0, offset: 0x35DF0, size: 0x8, addend: 0x0, symName: '__ZNSt3__111__introsortINS_17_ClassicAlgPolicyERZ7MinCostRNS_6vectorI5PriceNS_9allocatorIS3_EEEEiiE3$_0PS3_EEvT1_SB_T0_NS_15iterator_traitsISB_E15difference_typeE', symObjAddr: 0x55A0, symBinAddr: 0x1000069E0, symSize: 0xCC0 }
  - { offsetInCU: 0x35DFB, offset: 0x35DFB, size: 0x8, addend: 0x0, symName: __ZN13TestFramework20AbstractTableAdapterINS_16ProblemSetHeaderEE10ColumnSpecD1Ev, symObjAddr: 0x3EC0, symBinAddr: 0x100005340, symSize: 0x60 }
  - { offsetInCU: 0x35FE5, offset: 0x35FE5, size: 0x8, addend: 0x0, symName: __ZNSt3__120__shared_ptr_pointerIPN13TestFramework16BaseFieldAdapterINS1_16ProblemSetHeaderEEENS_10shared_ptrIS4_E27__shared_ptr_default_deleteIS4_S4_EENS_9allocatorIS4_EEED1Ev, symObjAddr: 0x3B30, symBinAddr: 0x100004FB0, symSize: 0x10 }
  - { offsetInCU: 0x3603D, offset: 0x3603D, size: 0x8, addend: 0x0, symName: __ZNSt3__120__shared_ptr_pointerIPN13TestFramework16BaseFieldAdapterINS1_16ProblemSetHeaderEEENS_10shared_ptrIS4_E27__shared_ptr_default_deleteIS4_S4_EENS_9allocatorIS4_EEED0Ev, symObjAddr: 0x3B40, symBinAddr: 0x100004FC0, symSize: 0x20 }
  - { offsetInCU: 0x360A2, offset: 0x360A2, size: 0x8, addend: 0x0, symName: __ZNSt3__120__shared_ptr_pointerIPN13TestFramework16BaseFieldAdapterINS1_16ProblemSetHeaderEEENS_10shared_ptrIS4_E27__shared_ptr_default_deleteIS4_S4_EENS_9allocatorIS4_EEE16__on_zero_sharedEv, symObjAddr: 0x3B60, symBinAddr: 0x100004FE0, symSize: 0x20 }
  - { offsetInCU: 0x36137, offset: 0x36137, size: 0x8, addend: 0x0, symName: __ZNKSt3__120__shared_ptr_pointerIPN13TestFramework16BaseFieldAdapterINS1_16ProblemSetHeaderEEENS_10shared_ptrIS4_E27__shared_ptr_default_deleteIS4_S4_EENS_9allocatorIS4_EEE13__get_deleterERKSt9type_info, symObjAddr: 0x3B80, symBinAddr: 0x100005000, symSize: 0x20 }
  - { offsetInCU: 0x361FA, offset: 0x361FA, size: 0x8, addend: 0x0, symName: __ZNSt3__120__shared_ptr_pointerIPN13TestFramework16BaseFieldAdapterINS1_16ProblemSetHeaderEEENS_10shared_ptrIS4_E27__shared_ptr_default_deleteIS4_S4_EENS_9allocatorIS4_EEE21__on_zero_shared_weakEv, symObjAddr: 0x3BA0, symBinAddr: 0x100005020, symSize: 0x10 }
  - { offsetInCU: 0x362CA, offset: 0x362CA, size: 0x8, addend: 0x0, symName: __ZNK13TestFramework12FieldAdapterINS_16ProblemSetHeaderEiE10FromStringERS1_NS_13StringSegmentE, symObjAddr: 0x3BB0, symBinAddr: 0x100005030, symSize: 0x20 }
  - { offsetInCU: 0x3631F, offset: 0x3631F, size: 0x8, addend: 0x0, symName: __ZNK13TestFramework16BaseFieldAdapterINS_16ProblemSetHeaderEE10FromStringERS1_RKNSt3__112basic_stringIcNS4_11char_traitsIcEENS4_9allocatorIcEEEE, symObjAddr: 0x3BD0, symBinAddr: 0x100005050, symSize: 0x50 }
  - { offsetInCU: 0x36435, offset: 0x36435, size: 0x8, addend: 0x0, symName: __ZNK13TestFramework12FieldAdapterINS_16ProblemSetHeaderEiE8ToStringERKS1_RNSt3__112basic_stringIcNS5_11char_traitsIcEENS5_9allocatorIcEEEE, symObjAddr: 0x3C20, symBinAddr: 0x1000050A0, symSize: 0x120 }
  - { offsetInCU: 0x36687, offset: 0x36687, size: 0x8, addend: 0x0, symName: __ZNK13TestFramework12FieldAdapterINS_16ProblemSetHeaderEiE18EqualsDefaultValueERKS1_, symObjAddr: 0x3D40, symBinAddr: 0x1000051C0, symSize: 0x20 }
  - { offsetInCU: 0x366BC, offset: 0x366BC, size: 0x8, addend: 0x0, symName: __ZNK13TestFramework12FieldAdapterINS_16ProblemSetHeaderEiE15SetDefaultValueERS1_, symObjAddr: 0x3D60, symBinAddr: 0x1000051E0, symSize: 0x10 }
  - { offsetInCU: 0x366F1, offset: 0x366F1, size: 0x8, addend: 0x0, symName: __ZN13TestFramework12FieldAdapterINS_16ProblemSetHeaderEiED1Ev, symObjAddr: 0x3D70, symBinAddr: 0x1000051F0, symSize: 0x10 }
  - { offsetInCU: 0x3671C, offset: 0x3671C, size: 0x8, addend: 0x0, symName: __ZN13TestFramework12FieldAdapterINS_16ProblemSetHeaderEiED0Ev, symObjAddr: 0x3D80, symBinAddr: 0x100005200, symSize: 0x10 }
  - { offsetInCU: 0x367A5, offset: 0x367A5, size: 0x8, addend: 0x0, symName: __ZN13TestFrameworkL5ParseENS_13StringSegmentERi.cold.1, symObjAddr: 0x91E0, symBinAddr: 0x10000A6A0, symSize: 0x30 }
  - { offsetInCU: 0x36D92, offset: 0x36D92, size: 0x8, addend: 0x0, symName: __ZNKSt3__16vectorIN13TestFramework20AbstractTableAdapterINS1_16ProblemSetHeaderEE10ColumnSpecENS_9allocatorIS5_EEE20__throw_length_errorB7v160006Ev, symObjAddr: 0x4350, symBinAddr: 0x1000057D0, symSize: 0x10 }
  - { offsetInCU: 0x36DBB, offset: 0x36DBB, size: 0x8, addend: 0x0, symName: __ZNSt3__120__throw_length_errorB7v160006EPKc, symObjAddr: 0x4360, symBinAddr: 0x1000057E0, symSize: 0x50 }
  - { offsetInCU: 0x36DC6, offset: 0x36DC6, size: 0x8, addend: 0x0, symName: __ZNSt3__114__split_bufferIN13TestFramework20AbstractTableAdapterINS1_16ProblemSetHeaderEE10ColumnSpecERNS_9allocatorIS5_EEED1Ev, symObjAddr: 0x42A0, symBinAddr: 0x100005720, symSize: 0xB0 }
  - { offsetInCU: 0x37100, offset: 0x37100, size: 0x8, addend: 0x0, symName: __ZNSt12length_errorC1B7v160006EPKc, symObjAddr: 0x43B0, symBinAddr: 0x100005830, symSize: 0x30 }
  - { offsetInCU: 0x3755F, offset: 0x3755F, size: 0x8, addend: 0x0, symName: __ZNSt3__16__treeINS_12__value_typeINS_12basic_stringIcNS_11char_traitsIcEENS_9allocatorIcEEEEmEENS_19__map_value_compareIS7_S8_NS_4lessIS7_EELb1EEENS5_IS8_EEE12__find_equalIS7_EERPNS_16__tree_node_baseIPvEERPNS_15__tree_end_nodeISJ_EERKT_, symObjAddr: 0x44D0, symBinAddr: 0x100005950, symSize: 0x140 }
  - { offsetInCU: 0x3789C, offset: 0x3789C, size: 0x8, addend: 0x0, symName: __ZN13TestFramework20AbstractTableAdapterI9ProblemN2E16SetDefaultValuesEm, symObjAddr: 0x49E0, symBinAddr: 0x100005E60, symSize: 0x70 }
  - { offsetInCU: 0x37A0C, offset: 0x37A0C, size: 0x8, addend: 0x0, symName: __ZN13TestFramework20AbstractTableAdapterI9ProblemN2E16SetDefaultValuesEm.cold.1, symObjAddr: 0x9210, symBinAddr: 0x10000A6D0, symSize: 0x30 }
  - { offsetInCU: 0x37A4D, offset: 0x37A4D, size: 0x8, addend: 0x0, symName: __ZNK13TestFramework20AbstractTableAdapterI9ProblemN2E13GetColumnNameEm, symObjAddr: 0x4A50, symBinAddr: 0x100005ED0, symSize: 0x40 }
  - { offsetInCU: 0x37ACE, offset: 0x37ACE, size: 0x8, addend: 0x0, symName: __ZNK13TestFramework20AbstractTableAdapterI9ProblemN2E13GetColumnNameEm.cold.1, symObjAddr: 0x9240, symBinAddr: 0x10000A700, symSize: 0x30 }
  - { offsetInCU: 0x37AE6, offset: 0x37AE6, size: 0x8, addend: 0x0, symName: __ZNK13TestFramework20AbstractTableAdapterI9ProblemN2E8GetValueEmmRNSt3__112basic_stringIcNS3_11char_traitsIcEENS3_9allocatorIcEEEE, symObjAddr: 0x4A90, symBinAddr: 0x100005F10, symSize: 0xE0 }
  - { offsetInCU: 0x37D3F, offset: 0x37D3F, size: 0x8, addend: 0x0, symName: __ZNK13TestFramework20AbstractTableAdapterI9ProblemN2E8GetValueEmmRNSt3__112basic_stringIcNS3_11char_traitsIcEENS3_9allocatorIcEEEE.cold.2, symObjAddr: 0x92A0, symBinAddr: 0x10000A760, symSize: 0x30 }
  - { offsetInCU: 0x37D57, offset: 0x37D57, size: 0x8, addend: 0x0, symName: __ZNK13TestFramework20AbstractTableAdapterI9ProblemN2E8GetValueEmmRNSt3__112basic_stringIcNS3_11char_traitsIcEENS3_9allocatorIcEEEE.cold.1, symObjAddr: 0x9270, symBinAddr: 0x10000A730, symSize: 0x30 }
  - { offsetInCU: 0x37D93, offset: 0x37D93, size: 0x8, addend: 0x0, symName: __ZN13TestFramework20AbstractTableAdapterI9ProblemN2E8SetValueEmmNS_13StringSegmentE, symObjAddr: 0x4B70, symBinAddr: 0x100005FF0, symSize: 0xF0 }
  - { offsetInCU: 0x37FF5, offset: 0x37FF5, size: 0x8, addend: 0x0, symName: __ZN13TestFramework20AbstractTableAdapterI9ProblemN2E8SetValueEmmNS_13StringSegmentE.cold.2, symObjAddr: 0x9300, symBinAddr: 0x10000A7C0, symSize: 0x30 }
  - { offsetInCU: 0x3800D, offset: 0x3800D, size: 0x8, addend: 0x0, symName: __ZN13TestFramework20AbstractTableAdapterI9ProblemN2E8SetValueEmmNS_13StringSegmentE.cold.1, symObjAddr: 0x92D0, symBinAddr: 0x10000A790, symSize: 0x30 }
  - { offsetInCU: 0x380BE, offset: 0x380BE, size: 0x8, addend: 0x0, symName: __ZNK13TestFramework20AbstractTableAdapterI9ProblemN2E15GetColumnByNameENS_13StringSegmentERm, symObjAddr: 0x4C60, symBinAddr: 0x1000060E0, symSize: 0x130 }
  - { offsetInCU: 0x38588, offset: 0x38588, size: 0x8, addend: 0x0, symName: __ZNKSt3__16__treeINS_12__value_typeINS_12basic_stringIcNS_11char_traitsIcEENS_9allocatorIcEEEEmEENS_19__map_value_compareIS7_S8_NS_4lessIS7_EELb1EEENS5_IS8_EEE4findIS7_EENS_21__tree_const_iteratorIS8_PNS_11__tree_nodeIS8_PvEElEERKT_, symObjAddr: 0x4F90, symBinAddr: 0x1000063F0, symSize: 0x140 }
  - { offsetInCU: 0x38890, offset: 0x38890, size: 0x8, addend: 0x0, symName: __ZNK13TestFramework20AbstractTableAdapterI9ProblemN2E18EqualsDefaultValueEmm, symObjAddr: 0x4D90, symBinAddr: 0x100006210, symSize: 0xD0 }
  - { offsetInCU: 0x38AD3, offset: 0x38AD3, size: 0x8, addend: 0x0, symName: __ZNK13TestFramework20AbstractTableAdapterI9ProblemN2E18EqualsDefaultValueEmm.cold.2, symObjAddr: 0x9360, symBinAddr: 0x10000A820, symSize: 0x30 }
  - { offsetInCU: 0x38AEB, offset: 0x38AEB, size: 0x8, addend: 0x0, symName: __ZNK13TestFramework20AbstractTableAdapterI9ProblemN2E18EqualsDefaultValueEmm.cold.1, symObjAddr: 0x9330, symBinAddr: 0x10000A7F0, symSize: 0x30 }
  - { offsetInCU: 0x38B03, offset: 0x38B03, size: 0x8, addend: 0x0, symName: __ZNK13TestFramework20AbstractTableAdapterI9ProblemN2E11ColumnCountEv, symObjAddr: 0x4E60, symBinAddr: 0x1000062E0, symSize: 0x20 }
  - { offsetInCU: 0x38B49, offset: 0x38B49, size: 0x8, addend: 0x0, symName: __ZN13TestFramework20AbstractTableAdapterI9ProblemN2ED1Ev, symObjAddr: 0x4E80, symBinAddr: 0x10000A2A0, symSize: 0x10 }
  - { offsetInCU: 0x38B72, offset: 0x38B72, size: 0x8, addend: 0x0, symName: __ZN13TestFramework20AbstractTableAdapterI9ProblemN2ED0Ev, symObjAddr: 0x4E90, symBinAddr: 0x10000A2B0, symSize: 0x10 }
  - { offsetInCU: 0x38B9B, offset: 0x38B9B, size: 0x8, addend: 0x0, symName: __ZN13TestFramework20AbstractTableAdapterI9ProblemN2E10ColumnSpecD1Ev, symObjAddr: 0x4EA0, symBinAddr: 0x100006300, symSize: 0x60 }
  - { offsetInCU: 0x38E7C, offset: 0x38E7C, size: 0x8, addend: 0x0, symName: __ZN13TestFramework20AbstractTableAdapterINS_16ProblemSetHeaderEE16SetDefaultValuesEm, symObjAddr: 0x50D0, symBinAddr: 0x100006530, symSize: 0x70 }
  - { offsetInCU: 0x38FEC, offset: 0x38FEC, size: 0x8, addend: 0x0, symName: __ZN13TestFramework20AbstractTableAdapterINS_16ProblemSetHeaderEE16SetDefaultValuesEm.cold.1, symObjAddr: 0x9390, symBinAddr: 0x10000A850, symSize: 0x30 }
  - { offsetInCU: 0x39028, offset: 0x39028, size: 0x8, addend: 0x0, symName: __ZNK13TestFramework20AbstractTableAdapterINS_16ProblemSetHeaderEE13GetColumnNameEm, symObjAddr: 0x5140, symBinAddr: 0x1000065A0, symSize: 0x40 }
  - { offsetInCU: 0x390A9, offset: 0x390A9, size: 0x8, addend: 0x0, symName: __ZNK13TestFramework20AbstractTableAdapterINS_16ProblemSetHeaderEE13GetColumnNameEm.cold.1, symObjAddr: 0x93C0, symBinAddr: 0x10000A880, symSize: 0x30 }
  - { offsetInCU: 0x390C1, offset: 0x390C1, size: 0x8, addend: 0x0, symName: __ZNK13TestFramework20AbstractTableAdapterINS_16ProblemSetHeaderEE8GetValueEmmRNSt3__112basic_stringIcNS3_11char_traitsIcEENS3_9allocatorIcEEEE, symObjAddr: 0x5180, symBinAddr: 0x1000065E0, symSize: 0xE0 }
  - { offsetInCU: 0x3931A, offset: 0x3931A, size: 0x8, addend: 0x0, symName: __ZNK13TestFramework20AbstractTableAdapterINS_16ProblemSetHeaderEE8GetValueEmmRNSt3__112basic_stringIcNS3_11char_traitsIcEENS3_9allocatorIcEEEE.cold.2, symObjAddr: 0x9420, symBinAddr: 0x10000A8E0, symSize: 0x30 }
  - { offsetInCU: 0x39332, offset: 0x39332, size: 0x8, addend: 0x0, symName: __ZNK13TestFramework20AbstractTableAdapterINS_16ProblemSetHeaderEE8GetValueEmmRNSt3__112basic_stringIcNS3_11char_traitsIcEENS3_9allocatorIcEEEE.cold.1, symObjAddr: 0x93F0, symBinAddr: 0x10000A8B0, symSize: 0x30 }
  - { offsetInCU: 0x3936E, offset: 0x3936E, size: 0x8, addend: 0x0, symName: __ZN13TestFramework20AbstractTableAdapterINS_16ProblemSetHeaderEE8SetValueEmmNS_13StringSegmentE, symObjAddr: 0x5260, symBinAddr: 0x1000066C0, symSize: 0xF0 }
  - { offsetInCU: 0x395D0, offset: 0x395D0, size: 0x8, addend: 0x0, symName: __ZN13TestFramework20AbstractTableAdapterINS_16ProblemSetHeaderEE8SetValueEmmNS_13StringSegmentE.cold.2, symObjAddr: 0x9480, symBinAddr: 0x10000A940, symSize: 0x30 }
  - { offsetInCU: 0x395E8, offset: 0x395E8, size: 0x8, addend: 0x0, symName: __ZN13TestFramework20AbstractTableAdapterINS_16ProblemSetHeaderEE8SetValueEmmNS_13StringSegmentE.cold.1, symObjAddr: 0x9450, symBinAddr: 0x10000A910, symSize: 0x30 }
  - { offsetInCU: 0x39600, offset: 0x39600, size: 0x8, addend: 0x0, symName: __ZNK13TestFramework20AbstractTableAdapterINS_16ProblemSetHeaderEE15GetColumnByNameENS_13StringSegmentERm, symObjAddr: 0x5350, symBinAddr: 0x1000067B0, symSize: 0x130 }
  - { offsetInCU: 0x39ACA, offset: 0x39ACA, size: 0x8, addend: 0x0, symName: __ZNK13TestFramework20AbstractTableAdapterINS_16ProblemSetHeaderEE18EqualsDefaultValueEmm, symObjAddr: 0x5480, symBinAddr: 0x1000068E0, symSize: 0xD0 }
  - { offsetInCU: 0x39D0D, offset: 0x39D0D, size: 0x8, addend: 0x0, symName: __ZNK13TestFramework20AbstractTableAdapterINS_16ProblemSetHeaderEE18EqualsDefaultValueEmm.cold.2, symObjAddr: 0x94E0, symBinAddr: 0x10000A9A0, symSize: 0x30 }
  - { offsetInCU: 0x39D25, offset: 0x39D25, size: 0x8, addend: 0x0, symName: __ZNK13TestFramework20AbstractTableAdapterINS_16ProblemSetHeaderEE18EqualsDefaultValueEmm.cold.1, symObjAddr: 0x94B0, symBinAddr: 0x10000A970, symSize: 0x30 }
  - { offsetInCU: 0x39D3D, offset: 0x39D3D, size: 0x8, addend: 0x0, symName: __ZNK13TestFramework20AbstractTableAdapterINS_16ProblemSetHeaderEE11ColumnCountEv, symObjAddr: 0x5550, symBinAddr: 0x1000069B0, symSize: 0x20 }
  - { offsetInCU: 0x39D83, offset: 0x39D83, size: 0x8, addend: 0x0, symName: __ZN13TestFramework20AbstractTableAdapterINS_16ProblemSetHeaderEED1Ev, symObjAddr: 0x5570, symBinAddr: 0x10000A2C0, symSize: 0x10 }
  - { offsetInCU: 0x39DAC, offset: 0x39DAC, size: 0x8, addend: 0x0, symName: __ZN13TestFramework20AbstractTableAdapterINS_16ProblemSetHeaderEED0Ev, symObjAddr: 0x5580, symBinAddr: 0x10000A2D0, symSize: 0x10 }
  - { offsetInCU: 0x3A165, offset: 0x3A165, size: 0x8, addend: 0x0, symName: __ZN13TestFramework13RecordAdapterINS_16ProblemSetHeaderEE6NewRowERm, symObjAddr: 0x6CE0, symBinAddr: 0x100008120, symSize: 0x10 }
  - { offsetInCU: 0x3A19A, offset: 0x3A19A, size: 0x8, addend: 0x0, symName: __ZNK13TestFramework13RecordAdapterINS_16ProblemSetHeaderEE11IsFixedSizeEv, symObjAddr: 0x6CF0, symBinAddr: 0x100008130, symSize: 0x10 }
  - { offsetInCU: 0x3A1C1, offset: 0x3A1C1, size: 0x8, addend: 0x0, symName: __ZNK13TestFramework13RecordAdapterINS_16ProblemSetHeaderEE8RowCountEv, symObjAddr: 0x6D00, symBinAddr: 0x100008140, symSize: 0x10 }
  - { offsetInCU: 0x3A1E8, offset: 0x3A1E8, size: 0x8, addend: 0x0, symName: __ZN13TestFramework13RecordAdapterINS_16ProblemSetHeaderEED0Ev, symObjAddr: 0x6D10, symBinAddr: 0x100008150, symSize: 0xD0 }
  - { offsetInCU: 0x3A63A, offset: 0x3A63A, size: 0x8, addend: 0x0, symName: __ZN13TestFramework13RecordAdapterINS_16ProblemSetHeaderEE9GetRecordEm, symObjAddr: 0x6DE0, symBinAddr: 0x100008220, symSize: 0x20 }
  - { offsetInCU: 0x3A680, offset: 0x3A680, size: 0x8, addend: 0x0, symName: __ZN13TestFramework13RecordAdapterINS_16ProblemSetHeaderEE9GetRecordEm.cold.1, symObjAddr: 0x9510, symBinAddr: 0x10000A9D0, symSize: 0x30 }
  - { offsetInCU: 0x3A698, offset: 0x3A698, size: 0x8, addend: 0x0, symName: __ZNK13TestFramework13RecordAdapterINS_16ProblemSetHeaderEE9GetRecordEm, symObjAddr: 0x6E00, symBinAddr: 0x100008240, symSize: 0x20 }
  - { offsetInCU: 0x3A6DE, offset: 0x3A6DE, size: 0x8, addend: 0x0, symName: __ZNK13TestFramework13RecordAdapterINS_16ProblemSetHeaderEE9GetRecordEm.cold.1, symObjAddr: 0x9540, symBinAddr: 0x10000AA00, symSize: 0x30 }
  - { offsetInCU: 0x3AA6A, offset: 0x3AA6A, size: 0x8, addend: 0x0, symName: __ZN13TestFramework12TableAdapterI9ProblemN2E6NewRowERm, symObjAddr: 0x6EE0, symBinAddr: 0x100008320, symSize: 0x90 }
  - { offsetInCU: 0x3AC0E, offset: 0x3AC0E, size: 0x8, addend: 0x0, symName: __ZNSt3__16vectorI9ProblemN2NS_9allocatorIS1_EEE24__emplace_back_slow_pathIJEEEvDpOT_, symObjAddr: 0x7100, symBinAddr: 0x100008540, symSize: 0x210 }
  - { offsetInCU: 0x3B29F, offset: 0x3B29F, size: 0x8, addend: 0x0, symName: __ZNK13TestFramework12TableAdapterI9ProblemN2E11IsFixedSizeEv, symObjAddr: 0x6F70, symBinAddr: 0x1000083B0, symSize: 0x10 }
  - { offsetInCU: 0x3B2C6, offset: 0x3B2C6, size: 0x8, addend: 0x0, symName: __ZNK13TestFramework12TableAdapterI9ProblemN2E8RowCountEv, symObjAddr: 0x6F80, symBinAddr: 0x1000083C0, symSize: 0x30 }
  - { offsetInCU: 0x3B30C, offset: 0x3B30C, size: 0x8, addend: 0x0, symName: __ZN13TestFramework12TableAdapterI9ProblemN2ED0Ev, symObjAddr: 0x6FB0, symBinAddr: 0x1000083F0, symSize: 0xD0 }
  - { offsetInCU: 0x3B782, offset: 0x3B782, size: 0x8, addend: 0x0, symName: __ZN13TestFramework12TableAdapterI9ProblemN2E9GetRecordEm, symObjAddr: 0x7080, symBinAddr: 0x1000084C0, symSize: 0x40 }
  - { offsetInCU: 0x3B804, offset: 0x3B804, size: 0x8, addend: 0x0, symName: __ZN13TestFramework12TableAdapterI9ProblemN2E9GetRecordEm.cold.1, symObjAddr: 0x9570, symBinAddr: 0x10000AA30, symSize: 0x30 }
  - { offsetInCU: 0x3B81C, offset: 0x3B81C, size: 0x8, addend: 0x0, symName: __ZNK13TestFramework12TableAdapterI9ProblemN2E9GetRecordEm, symObjAddr: 0x70C0, symBinAddr: 0x100008500, symSize: 0x40 }
  - { offsetInCU: 0x3B89E, offset: 0x3B89E, size: 0x8, addend: 0x0, symName: __ZNK13TestFramework12TableAdapterI9ProblemN2E9GetRecordEm.cold.1, symObjAddr: 0x95A0, symBinAddr: 0x10000AA60, symSize: 0x23 }
  - { offsetInCU: 0x3BC49, offset: 0x3BC49, size: 0x8, addend: 0x0, symName: __ZNSt3__114__split_bufferI9ProblemN2RNS_9allocatorIS1_EEED2Ev, symObjAddr: 0x7320, symBinAddr: 0x100008760, symSize: 0xA0 }
  - { offsetInCU: 0x3C2E2, offset: 0x3C2E2, size: 0x8, addend: 0x0, symName: __ZNKSt3__16vectorI9ProblemN2NS_9allocatorIS1_EEE20__throw_length_errorB7v160006Ev, symObjAddr: 0x7310, symBinAddr: 0x100008750, symSize: 0x10 }
  - { offsetInCU: 0x3C30B, offset: 0x3C30B, size: 0x8, addend: 0x0, symName: __ZNSt3__114__split_bufferI9ProblemN2RNS_9allocatorIS1_EEED2Ev, symObjAddr: 0x7320, symBinAddr: 0x100008760, symSize: 0xA0 }
  - { offsetInCU: 0x3C3E0, offset: 0x3C3E0, size: 0x8, addend: 0x0, symName: __ZN13TestFramework12FieldAdapterI9ProblemN2NSt3__112basic_stringIcNS2_11char_traitsIcEENS2_9allocatorIcEEEEED0Ev, symObjAddr: 0x80C0, symBinAddr: 0x100009500, symSize: 0x40 }
  - { offsetInCU: 0x3C788, offset: 0x3C788, size: 0x8, addend: 0x0, symName: __ZNSt3__16vectorIN13TestFramework20AbstractTableAdapterI9ProblemN2E10ColumnSpecENS_9allocatorIS5_EEE21__push_back_slow_pathIRKS5_EEvOT_, symObjAddr: 0x7B40, symBinAddr: 0x100008F80, symSize: 0x240 }
  - { offsetInCU: 0x3D0FA, offset: 0x3D0FA, size: 0x8, addend: 0x0, symName: __ZNSt3__120__shared_ptr_pointerIPN13TestFramework16BaseFieldAdapterI9ProblemN2EENS_10shared_ptrIS4_E27__shared_ptr_default_deleteIS4_S4_EENS_9allocatorIS4_EEED1Ev, symObjAddr: 0x78E0, symBinAddr: 0x100008D20, symSize: 0x10 }
  - { offsetInCU: 0x3D152, offset: 0x3D152, size: 0x8, addend: 0x0, symName: __ZNSt3__120__shared_ptr_pointerIPN13TestFramework16BaseFieldAdapterI9ProblemN2EENS_10shared_ptrIS4_E27__shared_ptr_default_deleteIS4_S4_EENS_9allocatorIS4_EEED0Ev, symObjAddr: 0x78F0, symBinAddr: 0x100008D30, symSize: 0x20 }
  - { offsetInCU: 0x3D1B7, offset: 0x3D1B7, size: 0x8, addend: 0x0, symName: __ZNSt3__120__shared_ptr_pointerIPN13TestFramework16BaseFieldAdapterI9ProblemN2EENS_10shared_ptrIS4_E27__shared_ptr_default_deleteIS4_S4_EENS_9allocatorIS4_EEE16__on_zero_sharedEv, symObjAddr: 0x7910, symBinAddr: 0x100008D50, symSize: 0x20 }
  - { offsetInCU: 0x3D207, offset: 0x3D207, size: 0x8, addend: 0x0, symName: __ZNKSt3__120__shared_ptr_pointerIPN13TestFramework16BaseFieldAdapterI9ProblemN2EENS_10shared_ptrIS4_E27__shared_ptr_default_deleteIS4_S4_EENS_9allocatorIS4_EEE13__get_deleterERKSt9type_info, symObjAddr: 0x7930, symBinAddr: 0x100008D70, symSize: 0x20 }
  - { offsetInCU: 0x3D2CA, offset: 0x3D2CA, size: 0x8, addend: 0x0, symName: __ZNSt3__120__shared_ptr_pointerIPN13TestFramework16BaseFieldAdapterI9ProblemN2EENS_10shared_ptrIS4_E27__shared_ptr_default_deleteIS4_S4_EENS_9allocatorIS4_EEE21__on_zero_shared_weakEv, symObjAddr: 0x7950, symBinAddr: 0x100008D90, symSize: 0x10 }
  - { offsetInCU: 0x3D39A, offset: 0x3D39A, size: 0x8, addend: 0x0, symName: __ZNK13TestFramework12FieldAdapterI9ProblemN2iE10FromStringERS1_NS_13StringSegmentE, symObjAddr: 0x7960, symBinAddr: 0x100008DA0, symSize: 0x20 }
  - { offsetInCU: 0x3D3EF, offset: 0x3D3EF, size: 0x8, addend: 0x0, symName: __ZNK13TestFramework16BaseFieldAdapterI9ProblemN2E10FromStringERS1_RKNSt3__112basic_stringIcNS4_11char_traitsIcEENS4_9allocatorIcEEEE, symObjAddr: 0x7980, symBinAddr: 0x100008DC0, symSize: 0x50 }
  - { offsetInCU: 0x3D4E3, offset: 0x3D4E3, size: 0x8, addend: 0x0, symName: __ZNK13TestFramework12FieldAdapterI9ProblemN2iE8ToStringERKS1_RNSt3__112basic_stringIcNS5_11char_traitsIcEENS5_9allocatorIcEEEE, symObjAddr: 0x79D0, symBinAddr: 0x100008E10, symSize: 0x120 }
  - { offsetInCU: 0x3D735, offset: 0x3D735, size: 0x8, addend: 0x0, symName: __ZNK13TestFramework12FieldAdapterI9ProblemN2iE18EqualsDefaultValueERKS1_, symObjAddr: 0x7AF0, symBinAddr: 0x100008F30, symSize: 0x20 }
  - { offsetInCU: 0x3D76A, offset: 0x3D76A, size: 0x8, addend: 0x0, symName: __ZNK13TestFramework12FieldAdapterI9ProblemN2iE15SetDefaultValueERS1_, symObjAddr: 0x7B10, symBinAddr: 0x100008F50, symSize: 0x10 }
  - { offsetInCU: 0x3D79F, offset: 0x3D79F, size: 0x8, addend: 0x0, symName: __ZN13TestFramework12FieldAdapterI9ProblemN2iED1Ev, symObjAddr: 0x7B20, symBinAddr: 0x100008F60, symSize: 0x10 }
  - { offsetInCU: 0x3D7CA, offset: 0x3D7CA, size: 0x8, addend: 0x0, symName: __ZN13TestFramework12FieldAdapterI9ProblemN2iED0Ev, symObjAddr: 0x7B30, symBinAddr: 0x100008F70, symSize: 0x10 }
  - { offsetInCU: 0x3DBD1, offset: 0x3DBD1, size: 0x8, addend: 0x0, symName: __ZNKSt3__16vectorIN13TestFramework20AbstractTableAdapterI9ProblemN2E10ColumnSpecENS_9allocatorIS5_EEE20__throw_length_errorB7v160006Ev, symObjAddr: 0x7E30, symBinAddr: 0x100009270, symSize: 0x10 }
  - { offsetInCU: 0x3DBFA, offset: 0x3DBFA, size: 0x8, addend: 0x0, symName: __ZNK13TestFramework12FieldAdapterI9ProblemN2NSt3__112basic_stringIcNS2_11char_traitsIcEENS2_9allocatorIcEEEEE10FromStringERS1_NS_13StringSegmentE, symObjAddr: 0x7E40, symBinAddr: 0x100009280, symSize: 0xC0 }
  - { offsetInCU: 0x3DC05, offset: 0x3DC05, size: 0x8, addend: 0x0, symName: __ZNSt3__114__split_bufferIN13TestFramework20AbstractTableAdapterI9ProblemN2E10ColumnSpecERNS_9allocatorIS5_EEED1Ev, symObjAddr: 0x7D80, symBinAddr: 0x1000091C0, symSize: 0xB0 }
  - { offsetInCU: 0x3DF57, offset: 0x3DF57, size: 0x8, addend: 0x0, symName: __ZNK13TestFramework12FieldAdapterI9ProblemN2NSt3__112basic_stringIcNS2_11char_traitsIcEENS2_9allocatorIcEEEEE10FromStringERS1_NS_13StringSegmentE, symObjAddr: 0x7E40, symBinAddr: 0x100009280, symSize: 0xC0 }
  - { offsetInCU: 0x3E19A, offset: 0x3E19A, size: 0x8, addend: 0x0, symName: __ZNK13TestFramework12FieldAdapterI9ProblemN2NSt3__112basic_stringIcNS2_11char_traitsIcEENS2_9allocatorIcEEEEE8ToStringERKS1_RS8_, symObjAddr: 0x7F00, symBinAddr: 0x100009340, symSize: 0xB0 }
  - { offsetInCU: 0x3E390, offset: 0x3E390, size: 0x8, addend: 0x0, symName: __ZNK13TestFramework12FieldAdapterI9ProblemN2NSt3__112basic_stringIcNS2_11char_traitsIcEENS2_9allocatorIcEEEEE18EqualsDefaultValueERKS1_, symObjAddr: 0x7FB0, symBinAddr: 0x1000093F0, symSize: 0xC0 }
  - { offsetInCU: 0x3E4D8, offset: 0x3E4D8, size: 0x8, addend: 0x0, symName: __ZNK13TestFramework12FieldAdapterI9ProblemN2NSt3__112basic_stringIcNS2_11char_traitsIcEENS2_9allocatorIcEEEEE15SetDefaultValueERS1_, symObjAddr: 0x8070, symBinAddr: 0x1000094B0, symSize: 0x20 }
  - { offsetInCU: 0x3E52C, offset: 0x3E52C, size: 0x8, addend: 0x0, symName: __ZN13TestFramework12FieldAdapterI9ProblemN2NSt3__112basic_stringIcNS2_11char_traitsIcEENS2_9allocatorIcEEEEED1Ev, symObjAddr: 0x8090, symBinAddr: 0x1000094D0, symSize: 0x30 }
  - { offsetInCU: 0x3EAF0, offset: 0x3EAF0, size: 0x8, addend: 0x0, symName: __ZNK13TestFramework12FieldAdapterI9ProblemN2NSt3__16vectorIiNS2_9allocatorIiEEEEE10FromStringERS1_NS_13StringSegmentE, symObjAddr: 0x8100, symBinAddr: 0x100009540, symSize: 0x740 }
  - { offsetInCU: 0x3F7B4, offset: 0x3F7B4, size: 0x8, addend: 0x0, symName: __ZNKSt3__16vectorIiNS_9allocatorIiEEE20__throw_length_errorB7v160006Ev, symObjAddr: 0x8BB0, symBinAddr: 0x100009FF0, symSize: 0x10 }
  - { offsetInCU: 0x3F7DD, offset: 0x3F7DD, size: 0x8, addend: 0x0, symName: __ZNSt3__16vectorIiNS_9allocatorIiEEE6assignIPiLi0EEEvT_S6_, symObjAddr: 0x8BC0, symBinAddr: 0x10000A000, symSize: 0x260 }
  - { offsetInCU: 0x3F837, offset: 0x3F837, size: 0x8, addend: 0x0, symName: __ZNK13TestFramework12FieldAdapterI9ProblemN2NSt3__16vectorIiNS2_9allocatorIiEEEEE8ToStringERKS1_RNS2_12basic_stringIcNS2_11char_traitsIcEENS4_IcEEEE, symObjAddr: 0x8840, symBinAddr: 0x100009C80, symSize: 0x270 }
  - { offsetInCU: 0x3FD35, offset: 0x3FD35, size: 0x8, addend: 0x0, symName: __ZNK13TestFramework12FieldAdapterI9ProblemN2NSt3__16vectorIiNS2_9allocatorIiEEEEE18EqualsDefaultValueERKS1_, symObjAddr: 0x8AB0, symBinAddr: 0x100009EF0, symSize: 0x60 }
  - { offsetInCU: 0x3FE8E, offset: 0x3FE8E, size: 0x8, addend: 0x0, symName: __ZNK13TestFramework12FieldAdapterI9ProblemN2NSt3__16vectorIiNS2_9allocatorIiEEEEE15SetDefaultValueERS1_, symObjAddr: 0x8B10, symBinAddr: 0x100009F50, symSize: 0x30 }
  - { offsetInCU: 0x3FEFC, offset: 0x3FEFC, size: 0x8, addend: 0x0, symName: __ZNSt3__16vectorIiNS_9allocatorIiEEE6assignIPiLi0EEEvT_S6_, symObjAddr: 0x8BC0, symBinAddr: 0x10000A000, symSize: 0x260 }
  - { offsetInCU: 0x40612, offset: 0x40612, size: 0x8, addend: 0x0, symName: __ZN13TestFramework12FieldAdapterI9ProblemN2NSt3__16vectorIiNS2_9allocatorIiEEEEED1Ev, symObjAddr: 0x8B40, symBinAddr: 0x100009F80, symSize: 0x30 }
...
